target datalayout = "e-m:e-p270:32:32-p271:32:32-p272:64:64-i64:64-i128:128-f80:128-n8:16:32:64-S128"
target triple = "x86_64-pc-linux-gnu"

; Function Attrs: mustprogress nounwind uwtable
define internal noundef i32 @_ZN10OpenSubdiv6v3_6_03Bfr12_GLOBAL__N_121encodeTriBoundaryMaskEii(i32 noundef %0, i32 noundef %1) #1 {
  %3 = alloca i32, align 4
  %4 = alloca i32, align 4
  %5 = alloca i32, align 4
  %6 = alloca i32, align 4
  store i32 %0, ptr %3, align 4
  store i32 %1, ptr %4, align 4
  store i32 0, ptr %5, align 4
  %7 = load i32, ptr %3, align 4
  store i32 %7, ptr %6, align 4
  %8 = load i32, ptr %4, align 4
  %9 = icmp ne i32 %8, 0
  br i1 %9, label %10, label %31

10:                                               ; preds = %2
  %11 = load i32, ptr %3, align 4
  %12 = icmp eq i32 %11, 0
  br i1 %12, label %13, label %15

13:                                               ; preds = %10
  store i32 1, ptr %5, align 4
  %14 = load i32, ptr %4, align 4
  store i32 %14, ptr %6, align 4
  br label %30

15:                                               ; preds = %10
  %16 = load i32, ptr %4, align 4
  %17 = icmp eq i32 %16, 7
  br i1 %17, label %18, label %29

18:                                               ; preds = %15
  %19 = load i32, ptr %3, align 4
  %20 = icmp eq i32 %19, 1
  br i1 %20, label %27, label %21

21:                                               ; preds = %18
  %22 = load i32, ptr %3, align 4
  %23 = icmp eq i32 %22, 2
  br i1 %23, label %27, label %24

24:                                               ; preds = %21
  %25 = load i32, ptr %3, align 4
  %26 = icmp eq i32 %25, 4
  br i1 %26, label %27, label %29

27:                                               ; preds = %24, %21, %18
  store i32 2, ptr %5, align 4
  %28 = load i32, ptr %3, align 4
  store i32 %28, ptr %6, align 4
  br label %29

29:                                               ; preds = %27, %24, %15
  br label %30

30:                                               ; preds = %29, %13
  br label %31

31:                                               ; preds = %30, %2
  %32 = load i32, ptr %5, align 4
  %33 = shl i32 %32, 3
  %34 = load i32, ptr %6, align 4
  %35 = or i32 %33, %34
  ret i32 %35
}

; Function Attrs: mustprogress uwtable
define noundef i32 @_ZN10OpenSubdiv6v3_6_03Bfr19RegularPatchBuilder15GetBoundaryMaskEiPKi(i32 noundef %0, ptr noundef %1) #0 align 2 {
  %3 = alloca i32, align 4
  %4 = alloca i32, align 4
  %5 = alloca ptr, align 8
  %6 = alloca i8, align 1
  %7 = alloca i32, align 4
  %8 = alloca i32, align 4
  %9 = alloca i32, align 4
  store i32 %0, ptr %4, align 4
  store ptr %1, ptr %5, align 8
  %10 = load i32, ptr %4, align 4
  %11 = icmp eq i32 %10, 4
  %12 = zext i1 %11 to i8
  store i8 %12, ptr %6, align 1
  %13 = load i8, ptr %6, align 1
  %14 = trunc i8 %13 to i1
  br i1 %14, label %15, label %44

15:                                               ; preds = %2
  %16 = load ptr, ptr %5, align 8
  %17 = getelementptr inbounds i32, ptr %16, i64 1
  %18 = load i32, ptr %17, align 4
  %19 = icmp slt i32 %18, 0
  %20 = zext i1 %19 to i32
  %21 = shl i32 %20, 0
  %22 = load ptr, ptr %5, align 8
  %23 = getelementptr inbounds i32, ptr %22, i64 7
  %24 = load i32, ptr %23, align 4
  %25 = icmp slt i32 %24, 0
  %26 = zext i1 %25 to i32
  %27 = shl i32 %26, 1
  %28 = or i32 %21, %27
  %29 = load ptr, ptr %5, align 8
  %30 = getelementptr inbounds i32, ptr %29, i64 14
  %31 = load i32, ptr %30, align 4
  %32 = icmp slt i32 %31, 0
  %33 = zext i1 %32 to i32
  %34 = shl i32 %33, 2
  %35 = or i32 %28, %34
  %36 = load ptr, ptr %5, align 8
  %37 = getelementptr inbounds i32, ptr %36, i64 8
  %38 = load i32, ptr %37, align 4
  %39 = icmp slt i32 %38, 0
  %40 = zext i1 %39 to i32
  %41 = shl i32 %40, 3
  %42 = or i32 %35, %41
  store i32 %42, ptr %7, align 4
  %43 = load i32, ptr %7, align 4
  store i32 %43, ptr %3, align 4
  br label %106

44:                                               ; preds = %2
  %45 = load ptr, ptr %5, align 8
  %46 = getelementptr inbounds i32, ptr %45, i64 1
  %47 = load i32, ptr %46, align 4
  %48 = icmp slt i32 %47, 0
  %49 = zext i1 %48 to i32
  %50 = shl i32 %49, 0
  %51 = load ptr, ptr %5, align 8
  %52 = getelementptr inbounds i32, ptr %51, i64 9
  %53 = load i32, ptr %52, align 4
  %54 = icmp slt i32 %53, 0
  %55 = zext i1 %54 to i32
  %56 = shl i32 %55, 1
  %57 = or i32 %50, %56
  %58 = load ptr, ptr %5, align 8
  %59 = getelementptr inbounds i32, ptr %58, i64 7
  %60 = load i32, ptr %59, align 4
  %61 = icmp slt i32 %60, 0
  %62 = zext i1 %61 to i32
  %63 = shl i32 %62, 2
  %64 = or i32 %57, %63
  store i32 %64, ptr %8, align 4
  %65 = load ptr, ptr %5, align 8
  %66 = getelementptr inbounds i32, ptr %65, i64 0
  %67 = load i32, ptr %66, align 4
  %68 = icmp slt i32 %67, 0
  %69 = zext i1 %68 to i32
  %70 = load ptr, ptr %5, align 8
  %71 = getelementptr inbounds i32, ptr %70, i64 3
  %72 = load i32, ptr %71, align 4
  %73 = icmp slt i32 %72, 0
  %74 = zext i1 %73 to i32
  %75 = or i32 %69, %74
  %76 = shl i32 %75, 0
  %77 = load ptr, ptr %5, align 8
  %78 = getelementptr inbounds i32, ptr %77, i64 2
  %79 = load i32, ptr %78, align 4
  %80 = icmp slt i32 %79, 0
  %81 = zext i1 %80 to i32
  %82 = load ptr, ptr %5, align 8
  %83 = getelementptr inbounds i32, ptr %82, i64 6
  %84 = load i32, ptr %83, align 4
  %85 = icmp slt i32 %84, 0
  %86 = zext i1 %85 to i32
  %87 = or i32 %81, %86
  %88 = shl i32 %87, 1
  %89 = or i32 %76, %88
  %90 = load ptr, ptr %5, align 8
  %91 = getelementptr inbounds i32, ptr %90, i64 10
  %92 = load i32, ptr %91, align 4
  %93 = icmp slt i32 %92, 0
  %94 = zext i1 %93 to i32
  %95 = load ptr, ptr %5, align 8
  %96 = getelementptr inbounds i32, ptr %95, i64 11
  %97 = load i32, ptr %96, align 4
  %98 = icmp slt i32 %97, 0
  %99 = zext i1 %98 to i32
  %100 = or i32 %94, %99
  %101 = shl i32 %100, 2
  %102 = or i32 %89, %101
  store i32 %102, ptr %9, align 4
  %103 = load i32, ptr %8, align 4
  %104 = load i32, ptr %9, align 4
  %105 = call noundef i32 @_ZN10OpenSubdiv6v3_6_03Bfr12_GLOBAL__N_121encodeTriBoundaryMaskEii(i32 noundef %103, i32 noundef %104)
  store i32 %105, ptr %3, align 4
  br label %106

106:                                              ; preds = %44, %15
  %107 = load i32, ptr %3, align 4
  ret i32 %107
}