; Function Attrs: mustprogress nofree norecurse nosync nounwind willreturn memory(argmem: read) uwtable
define noundef range(i32 0, 24) i32 @_ZN10OpenSubdiv6v3_6_03Bfr19RegularPatchBuilder15GetBoundaryMaskEiPKi(i32 noundef %0, ptr noundef readonly captures(none) %1) local_unnamed_addr #0 align 2 {
  %3 = icmp eq i32 %0, 4
  %4 = getelementptr inbounds nuw i8, ptr %1, i64 4
  %5 = load i32, ptr %4, align 4
  %.lobit29 = lshr i32 %5, 31
  br i1 %3, label %6, label %22

6:                                                ; preds = %2
  %7 = getelementptr inbounds nuw i8, ptr %1, i64 28
  %8 = load i32, ptr %7, align 4
  %9 = lshr i32 %8, 30
  %10 = and i32 %9, 2
  %11 = getelementptr inbounds nuw i8, ptr %1, i64 56
  %12 = load i32, ptr %11, align 4
  %13 = lshr i32 %12, 29
  %14 = and i32 %13, 4
  %15 = or disjoint i32 %10, %14
  %16 = getelementptr inbounds nuw i8, ptr %1, i64 32
  %17 = load i32, ptr %16, align 4
  %18 = lshr i32 %17, 28
  %19 = and i32 %18, 8
  %20 = or disjoint i32 %15, %19
  %21 = or disjoint i32 %20, %.lobit29
  br label %58

22:                                               ; preds = %2
  %23 = getelementptr inbounds nuw i8, ptr %1, i64 36
  %24 = load i32, ptr %23, align 4
  %25 = lshr i32 %24, 30
  %26 = and i32 %25, 2
  %27 = getelementptr inbounds nuw i8, ptr %1, i64 28
  %28 = load i32, ptr %27, align 4
  %29 = lshr i32 %28, 29
  %30 = and i32 %29, 4
  %31 = or disjoint i32 %26, %30
  %32 = or disjoint i32 %31, %.lobit29
  %33 = load i32, ptr %1, align 4
  %34 = getelementptr inbounds nuw i8, ptr %1, i64 12
  %35 = load i32, ptr %34, align 4
  %.lobit2022 = or i32 %35, %33
  %36 = lshr i32 %.lobit2022, 31
  %37 = getelementptr inbounds nuw i8, ptr %1, i64 8
  %38 = load i32, ptr %37, align 4
  %39 = getelementptr inbounds nuw i8, ptr %1, i64 24
  %40 = load i32, ptr %39, align 4
  %.lobit2325 = or i32 %40, %38
  %41 = lshr i32 %.lobit2325, 30
  %42 = and i32 %41, 2
  %43 = or disjoint i32 %42, %36
  %44 = getelementptr inbounds nuw i8, ptr %1, i64 40
  %45 = load i32, ptr %44, align 4
  %46 = getelementptr inbounds nuw i8, ptr %1, i64 44
  %47 = load i32, ptr %46, align 4
  %.lobit2628 = or i32 %47, %45
  %48 = lshr i32 %.lobit2628, 29
  %49 = and i32 %48, 4
  %50 = or disjoint i32 %43, %49
  %.not.i = icmp eq i32 %50, 0
  br i1 %.not.i, label %_ZN10OpenSubdiv6v3_6_03Bfr12_GLOBAL__N_121encodeTriBoundaryMaskEii.exit, label %51

51:                                               ; preds = %22
  %52 = icmp eq i32 %32, 0
  br i1 %52, label %_ZN10OpenSubdiv6v3_6_03Bfr12_GLOBAL__N_121encodeTriBoundaryMaskEii.exit, label %53

53:                                               ; preds = %51
  %54 = icmp eq i32 %50, 7
  br i1 %54, label %55, label %_ZN10OpenSubdiv6v3_6_03Bfr12_GLOBAL__N_121encodeTriBoundaryMaskEii.exit

55:                                               ; preds = %53
  switch i32 %32, label %_ZN10OpenSubdiv6v3_6_03Bfr12_GLOBAL__N_121encodeTriBoundaryMaskEii.exit [
    i32 4, label %56
    i32 2, label %56
    i32 1, label %56
  ]

56:                                               ; preds = %55, %55, %55
  br label %_ZN10OpenSubdiv6v3_6_03Bfr12_GLOBAL__N_121encodeTriBoundaryMaskEii.exit

_ZN10OpenSubdiv6v3_6_03Bfr12_GLOBAL__N_121encodeTriBoundaryMaskEii.exit: ; preds = %22, %51, %53, %55, %56
  %.014.i = phi i32 [ 16, %56 ], [ 0, %55 ], [ 0, %53 ], [ 0, %22 ], [ 8, %51 ]
  %.0.i = phi i32 [ %32, %56 ], [ %32, %55 ], [ %32, %53 ], [ %32, %22 ], [ %50, %51 ]
  %57 = or disjoint i32 %.0.i, %.014.i
  br label %58

58:                                               ; preds = %_ZN10OpenSubdiv6v3_6_03Bfr12_GLOBAL__N_121encodeTriBoundaryMaskEii.exit, %6
  %.0 = phi i32 [ %21, %6 ], [ %57, %_ZN10OpenSubdiv6v3_6_03Bfr12_GLOBAL__N_121encodeTriBoundaryMaskEii.exit ]
  ret i32 %.0
}